target datalayout = "e-m:e-p270:32:32-p271:32:32-p272:64:64-i64:64-i128:128-f80:128-n8:16:32:64-S128"
target triple = "x86_64-pc-linux-gnu"

%struct._sapi_globals_struct = type { ptr, %struct.sapi_request_info, %struct.sapi_headers_struct, i64, i8, i8, %struct.stat, ptr, ptr, ptr, i64, i32, i8, double, %struct._zend_array, %struct._zval_struct, %struct._zend_fcall_info_cache, %struct.sapi_request_parse_body_context }
%struct.sapi_request_info = type { ptr, ptr, ptr, i64, ptr, ptr, ptr, ptr, i8, i8, i8, ptr, ptr, ptr, ptr, ptr, ptr, ptr, i32, i32, ptr, i32 }
%struct.sapi_headers_struct = type { %struct._zend_llist, i32, i8, ptr, ptr }
%struct._zend_llist = type { ptr, ptr, i64, i64, ptr, i8, ptr }
%struct.stat = type { i64, i64, i64, i32, i32, i32, i32, i64, i64, i64, i64, %struct.timespec, %struct.timespec, %struct.timespec, [3 x i64] }
%struct.timespec = type { i64, i64 }
%struct._zend_array = type { %struct._zend_refcounted_h, %union.anon.0, i32, %union.anon.1, i32, i32, i32, i32, i64, ptr }
%struct._zend_refcounted_h = type { i32, %union.anon }
%union.anon = type { i32 }
%union.anon.0 = type { i32 }
%union.anon.1 = type { ptr }
%struct._zval_struct = type { %union._zend_value, %union.anon.3, %union.anon.6 }
%union._zend_value = type { i64 }
%union.anon.3 = type { i32 }
%union.anon.6 = type { i32 }
%struct._zend_fcall_info_cache = type { ptr, ptr, ptr, ptr, ptr }
%struct.sapi_request_parse_body_context = type { i8, [5 x %struct.anon.7] }
%struct.anon.7 = type { i8, i64 }

@sapi_globals = dso_local global %struct._sapi_globals_struct zeroinitializer, align 8
@.str.6 = private unnamed_addr constant [6 x i8] c"UTF-8\00", align 1
@.str.7 = private unnamed_addr constant [6 x i8] c"text/\00", align 1
@.str.8 = private unnamed_addr constant [9 x i8] c"charset=\00", align 1
@.str.9 = private unnamed_addr constant [10 x i8] c";charset=\00", align 1

; Function Attrs: nounwind uwtable
define dso_local i64 @sapi_apply_default_charset(ptr noundef %0, i64 noundef %1) #0 {
  %3 = alloca i64, align 8
  %4 = alloca ptr, align 8
  %5 = alloca i64, align 8
  %6 = alloca ptr, align 8
  %7 = alloca ptr, align 8
  %8 = alloca i64, align 8
  %9 = alloca i64, align 8
  %10 = alloca i32, align 4
  store ptr %0, ptr %4, align 8, !tbaa !114
  store i64 %1, ptr %5, align 8, !tbaa !95
  call void @llvm.lifetime.start.p0(i64 8, ptr %6) #15
  call void @llvm.lifetime.start.p0(i64 8, ptr %7) #15
  call void @llvm.lifetime.start.p0(i64 8, ptr %8) #15
  %11 = load ptr, ptr getelementptr inbounds nuw (%struct._sapi_globals_struct, ptr @sapi_globals, i32 0, i32 8), align 8, !tbaa !112
  %12 = icmp ne ptr %11, null
  br i1 %12, label %13, label %15

13:                                               ; preds = %2
  %14 = load ptr, ptr getelementptr inbounds nuw (%struct._sapi_globals_struct, ptr @sapi_globals, i32 0, i32 8), align 8, !tbaa !112
  br label %16

15:                                               ; preds = %2
  br label %16

16:                                               ; preds = %15, %13
  %17 = phi ptr [ %14, %13 ], [ @.str.6, %15 ]
  store ptr %17, ptr %6, align 8, !tbaa !15
  %18 = load ptr, ptr %4, align 8, !tbaa !114
  %19 = load ptr, ptr %18, align 8, !tbaa !15
  %20 = icmp ne ptr %19, null
  br i1 %20, label %21, label %338

21:                                               ; preds = %16
  %22 = load ptr, ptr %6, align 8, !tbaa !15
  %23 = load i8, ptr %22, align 1, !tbaa !28
  %24 = sext i8 %23 to i32
  %25 = icmp ne i32 %24, 0
  br i1 %25, label %26, label %337

26:                                               ; preds = %21
  %27 = load ptr, ptr %4, align 8, !tbaa !114
  %28 = load ptr, ptr %27, align 8, !tbaa !15
  %29 = call i32 @strncmp(ptr noundef %28, ptr noundef @.str.7, i64 noundef 5) #16
  %30 = icmp eq i32 %29, 0
  br i1 %30, label %31, label %337

31:                                               ; preds = %26
  %32 = load ptr, ptr %4, align 8, !tbaa !114
  %33 = load ptr, ptr %32, align 8, !tbaa !15
  %34 = call ptr @strstr(ptr noundef %33, ptr noundef @.str.8) #16
  %35 = icmp eq ptr %34, null
  br i1 %35, label %36, label %337

36:                                               ; preds = %31
  %37 = load i64, ptr %5, align 8, !tbaa !95
  %38 = add i64 %37, 9
  %39 = load ptr, ptr %6, align 8, !tbaa !15
  %40 = call i64 @strlen(ptr noundef %39) #16
  %41 = add i64 %38, %40
  store i64 %41, ptr %8, align 8, !tbaa !95
  %42 = load i64, ptr %8, align 8, !tbaa !95
  %43 = add i64 %42, 1
  %44 = call i1 @llvm.is.constant.i64(i64 %43)
  br i1 %44, label %45, label %299

45:                                               ; preds = %36
  %46 = load i64, ptr %8, align 8, !tbaa !95
  %47 = add i64 %46, 1
  %48 = icmp ule i64 %47, 8
  br i1 %48, label %49, label %51

49:                                               ; preds = %45
  %50 = call noalias ptr @_emalloc_8()
  br label %297

51:                                               ; preds = %45
  %52 = load i64, ptr %8, align 8, !tbaa !95
  %53 = add i64 %52, 1
  %54 = icmp ule i64 %53, 16
  br i1 %54, label %55, label %57

55:                                               ; preds = %51
  %56 = call noalias ptr @_emalloc_16()
  br label %295

57:                                               ; preds = %51
  %58 = load i64, ptr %8, align 8, !tbaa !95
  %59 = add i64 %58, 1
  %60 = icmp ule i64 %59, 24
  br i1 %60, label %61, label %63

61:                                               ; preds = %57
  %62 = call noalias ptr @_emalloc_24()
  br label %293

63:                                               ; preds = %57
  %64 = load i64, ptr %8, align 8, !tbaa !95
  %65 = add i64 %64, 1
  %66 = icmp ule i64 %65, 32
  br i1 %66, label %67, label %69

67:                                               ; preds = %63
  %68 = call noalias ptr @_emalloc_32()
  br label %291

69:                                               ; preds = %63
  %70 = load i64, ptr %8, align 8, !tbaa !95
  %71 = add i64 %70, 1
  %72 = icmp ule i64 %71, 40
  br i1 %72, label %73, label %75

73:                                               ; preds = %69
  %74 = call noalias ptr @_emalloc_40()
  br label %289

75:                                               ; preds = %69
  %76 = load i64, ptr %8, align 8, !tbaa !95
  %77 = add i64 %76, 1
  %78 = icmp ule i64 %77, 48
  br i1 %78, label %79, label %81

79:                                               ; preds = %75
  %80 = call noalias ptr @_emalloc_48()
  br label %287

81:                                               ; preds = %75
  %82 = load i64, ptr %8, align 8, !tbaa !95
  %83 = add i64 %82, 1
  %84 = icmp ule i64 %83, 56
  br i1 %84, label %85, label %87

85:                                               ; preds = %81
  %86 = call noalias ptr @_emalloc_56()
  br label %285

87:                                               ; preds = %81
  %88 = load i64, ptr %8, align 8, !tbaa !95
  %89 = add i64 %88, 1
  %90 = icmp ule i64 %89, 64
  br i1 %90, label %91, label %93

91:                                               ; preds = %87
  %92 = call noalias ptr @_emalloc_64()
  br label %283

93:                                               ; preds = %87
  %94 = load i64, ptr %8, align 8, !tbaa !95
  %95 = add i64 %94, 1
  %96 = icmp ule i64 %95, 80
  br i1 %96, label %97, label %99

97:                                               ; preds = %93
  %98 = call noalias ptr @_emalloc_80()
  br label %281

99:                                               ; preds = %93
  %100 = load i64, ptr %8, align 8, !tbaa !95
  %101 = add i64 %100, 1
  %102 = icmp ule i64 %101, 96
  br i1 %102, label %103, label %105

103:                                              ; preds = %99
  %104 = call noalias ptr @_emalloc_96()
  br label %279

105:                                              ; preds = %99
  %106 = load i64, ptr %8, align 8, !tbaa !95
  %107 = add i64 %106, 1
  %108 = icmp ule i64 %107, 112
  br i1 %108, label %109, label %111

109:                                              ; preds = %105
  %110 = call noalias ptr @_emalloc_112()
  br label %277

111:                                              ; preds = %105
  %112 = load i64, ptr %8, align 8, !tbaa !95
  %113 = add i64 %112, 1
  %114 = icmp ule i64 %113, 128
  br i1 %114, label %115, label %117

115:                                              ; preds = %111
  %116 = call noalias ptr @_emalloc_128()
  br label %275

117:                                              ; preds = %111
  %118 = load i64, ptr %8, align 8, !tbaa !95
  %119 = add i64 %118, 1
  %120 = icmp ule i64 %119, 160
  br i1 %120, label %121, label %123

121:                                              ; preds = %117
  %122 = call noalias ptr @_emalloc_160()
  br label %273

123:                                              ; preds = %117
  %124 = load i64, ptr %8, align 8, !tbaa !95
  %125 = add i64 %124, 1
  %126 = icmp ule i64 %125, 192
  br i1 %126, label %127, label %129

127:                                              ; preds = %123
  %128 = call noalias ptr @_emalloc_192()
  br label %271

129:                                              ; preds = %123
  %130 = load i64, ptr %8, align 8, !tbaa !95
  %131 = add i64 %130, 1
  %132 = icmp ule i64 %131, 224
  br i1 %132, label %133, label %135

133:                                              ; preds = %129
  %134 = call noalias ptr @_emalloc_224()
  br label %269

135:                                              ; preds = %129
  %136 = load i64, ptr %8, align 8, !tbaa !95
  %137 = add i64 %136, 1
  %138 = icmp ule i64 %137, 256
  br i1 %138, label %139, label %141

139:                                              ; preds = %135
  %140 = call noalias ptr @_emalloc_256()
  br label %267

141:                                              ; preds = %135
  %142 = load i64, ptr %8, align 8, !tbaa !95
  %143 = add i64 %142, 1
  %144 = icmp ule i64 %143, 320
  br i1 %144, label %145, label %147

145:                                              ; preds = %141
  %146 = call noalias ptr @_emalloc_320()
  br label %265

147:                                              ; preds = %141
  %148 = load i64, ptr %8, align 8, !tbaa !95
  %149 = add i64 %148, 1
  %150 = icmp ule i64 %149, 384
  br i1 %150, label %151, label %153

151:                                              ; preds = %147
  %152 = call noalias ptr @_emalloc_384()
  br label %263

153:                                              ; preds = %147
  %154 = load i64, ptr %8, align 8, !tbaa !95
  %155 = add i64 %154, 1
  %156 = icmp ule i64 %155, 448
  br i1 %156, label %157, label %159

157:                                              ; preds = %153
  %158 = call noalias ptr @_emalloc_448()
  br label %261

159:                                              ; preds = %153
  %160 = load i64, ptr %8, align 8, !tbaa !95
  %161 = add i64 %160, 1
  %162 = icmp ule i64 %161, 512
  br i1 %162, label %163, label %165

163:                                              ; preds = %159
  %164 = call noalias ptr @_emalloc_512()
  br label %259

165:                                              ; preds = %159
  %166 = load i64, ptr %8, align 8, !tbaa !95
  %167 = add i64 %166, 1
  %168 = icmp ule i64 %167, 640
  br i1 %168, label %169, label %171

169:                                              ; preds = %165
  %170 = call noalias ptr @_emalloc_640()
  br label %257

171:                                              ; preds = %165
  %172 = load i64, ptr %8, align 8, !tbaa !95
  %173 = add i64 %172, 1
  %174 = icmp ule i64 %173, 768
  br i1 %174, label %175, label %177

175:                                              ; preds = %171
  %176 = call noalias ptr @_emalloc_768()
  br label %255

177:                                              ; preds = %171
  %178 = load i64, ptr %8, align 8, !tbaa !95
  %179 = add i64 %178, 1
  %180 = icmp ule i64 %179, 896
  br i1 %180, label %181, label %183

181:                                              ; preds = %177
  %182 = call noalias ptr @_emalloc_896()
  br label %253

183:                                              ; preds = %177
  %184 = load i64, ptr %8, align 8, !tbaa !95
  %185 = add i64 %184, 1
  %186 = icmp ule i64 %185, 1024
  br i1 %186, label %187, label %189

187:                                              ; preds = %183
  %188 = call noalias ptr @_emalloc_1024()
  br label %251

189:                                              ; preds = %183
  %190 = load i64, ptr %8, align 8, !tbaa !95
  %191 = add i64 %190, 1
  %192 = icmp ule i64 %191, 1280
  br i1 %192, label %193, label %195

193:                                              ; preds = %189
  %194 = call noalias ptr @_emalloc_1280()
  br label %249

195:                                              ; preds = %189
  %196 = load i64, ptr %8, align 8, !tbaa !95
  %197 = add i64 %196, 1
  %198 = icmp ule i64 %197, 1536
  br i1 %198, label %199, label %201

199:                                              ; preds = %195
  %200 = call noalias ptr @_emalloc_1536()
  br label %247

201:                                              ; preds = %195
  %202 = load i64, ptr %8, align 8, !tbaa !95
  %203 = add i64 %202, 1
  %204 = icmp ule i64 %203, 1792
  br i1 %204, label %205, label %207

205:                                              ; preds = %201
  %206 = call noalias ptr @_emalloc_1792()
  br label %245

207:                                              ; preds = %201
  %208 = load i64, ptr %8, align 8, !tbaa !95
  %209 = add i64 %208, 1
  %210 = icmp ule i64 %209, 2048
  br i1 %210, label %211, label %213

211:                                              ; preds = %207
  %212 = call noalias ptr @_emalloc_2048()
  br label %243

213:                                              ; preds = %207
  %214 = load i64, ptr %8, align 8, !tbaa !95
  %215 = add i64 %214, 1
  %216 = icmp ule i64 %215, 2560
  br i1 %216, label %217, label %219

217:                                              ; preds = %213
  %218 = call noalias ptr @_emalloc_2560()
  br label %241

219:                                              ; preds = %213
  %220 = load i64, ptr %8, align 8, !tbaa !95
  %221 = add i64 %220, 1
  %222 = icmp ule i64 %221, 3072
  br i1 %222, label %223, label %225

223:                                              ; preds = %219
  %224 = call noalias ptr @_emalloc_3072()
  br label %239

225:                                              ; preds = %219
  %226 = load i64, ptr %8, align 8, !tbaa !95
  %227 = add i64 %226, 1
  %228 = icmp ule i64 %227, 2093056
  br i1 %228, label %229, label %233

229:                                              ; preds = %225
  %230 = load i64, ptr %8, align 8, !tbaa !95
  %231 = add i64 %230, 1
  %232 = call noalias ptr @_emalloc_large(i64 noundef %231) #18
  br label %237

233:                                              ; preds = %225
  %234 = load i64, ptr %8, align 8, !tbaa !95
  %235 = add i64 %234, 1
  %236 = call noalias ptr @_emalloc_huge(i64 noundef %235) #18
  br label %237

237:                                              ; preds = %233, %229
  %238 = phi ptr [ %232, %229 ], [ %236, %233 ]
  br label %239

239:                                              ; preds = %237, %223
  %240 = phi ptr [ %224, %223 ], [ %238, %237 ]
  br label %241

241:                                              ; preds = %239, %217
  %242 = phi ptr [ %218, %217 ], [ %240, %239 ]
  br label %243

243:                                              ; preds = %241, %211
  %244 = phi ptr [ %212, %211 ], [ %242, %241 ]
  br label %245

245:                                              ; preds = %243, %205
  %246 = phi ptr [ %206, %205 ], [ %244, %243 ]
  br label %247

247:                                              ; preds = %245, %199
  %248 = phi ptr [ %200, %199 ], [ %246, %245 ]
  br label %249

249:                                              ; preds = %247, %193
  %250 = phi ptr [ %194, %193 ], [ %248, %247 ]
  br label %251

251:                                              ; preds = %249, %187
  %252 = phi ptr [ %188, %187 ], [ %250, %249 ]
  br label %253

253:                                              ; preds = %251, %181
  %254 = phi ptr [ %182, %181 ], [ %252, %251 ]
  br label %255

255:                                              ; preds = %253, %175
  %256 = phi ptr [ %176, %175 ], [ %254, %253 ]
  br label %257

257:                                              ; preds = %255, %169
  %258 = phi ptr [ %170, %169 ], [ %256, %255 ]
  br label %259

259:                                              ; preds = %257, %163
  %260 = phi ptr [ %164, %163 ], [ %258, %257 ]
  br label %261

261:                                              ; preds = %259, %157
  %262 = phi ptr [ %158, %157 ], [ %260, %259 ]
  br label %263

263:                                              ; preds = %261, %151
  %264 = phi ptr [ %152, %151 ], [ %262, %261 ]
  br label %265

265:                                              ; preds = %263, %145
  %266 = phi ptr [ %146, %145 ], [ %264, %263 ]
  br label %267

267:                                              ; preds = %265, %139
  %268 = phi ptr [ %140, %139 ], [ %266, %265 ]
  br label %269

269:                                              ; preds = %267, %133
  %270 = phi ptr [ %134, %133 ], [ %268, %267 ]
  br label %271

271:                                              ; preds = %269, %127
  %272 = phi ptr [ %128, %127 ], [ %270, %269 ]
  br label %273

273:                                              ; preds = %271, %121
  %274 = phi ptr [ %122, %121 ], [ %272, %271 ]
  br label %275

275:                                              ; preds = %273, %115
  %276 = phi ptr [ %116, %115 ], [ %274, %273 ]
  br label %277

277:                                              ; preds = %275, %109
  %278 = phi ptr [ %110, %109 ], [ %276, %275 ]
  br label %279

279:                                              ; preds = %277, %103
  %280 = phi ptr [ %104, %103 ], [ %278, %277 ]
  br label %281

281:                                              ; preds = %279, %97
  %282 = phi ptr [ %98, %97 ], [ %280, %279 ]
  br label %283

283:                                              ; preds = %281, %91
  %284 = phi ptr [ %92, %91 ], [ %282, %281 ]
  br label %285

285:                                              ; preds = %283, %85
  %286 = phi ptr [ %86, %85 ], [ %284, %283 ]
  br label %287

287:                                              ; preds = %285, %79
  %288 = phi ptr [ %80, %79 ], [ %286, %285 ]
  br label %289

289:                                              ; preds = %287, %73
  %290 = phi ptr [ %74, %73 ], [ %288, %287 ]
  br label %291

291:                                              ; preds = %289, %67
  %292 = phi ptr [ %68, %67 ], [ %290, %289 ]
  br label %293

293:                                              ; preds = %291, %61
  %294 = phi ptr [ %62, %61 ], [ %292, %291 ]
  br label %295

295:                                              ; preds = %293, %55
  %296 = phi ptr [ %56, %55 ], [ %294, %293 ]
  br label %297

297:                                              ; preds = %295, %49
  %298 = phi ptr [ %50, %49 ], [ %296, %295 ]
  br label %303

299:                                              ; preds = %36
  %300 = load i64, ptr %8, align 8, !tbaa !95
  %301 = add i64 %300, 1
  %302 = call noalias ptr @_emalloc(i64 noundef %301) #18
  br label %303

303:                                              ; preds = %299, %297
  %304 = phi ptr [ %298, %297 ], [ %302, %299 ]
  store ptr %304, ptr %7, align 8, !tbaa !15
  call void @llvm.lifetime.start.p0(i64 8, ptr %9) #15
  %305 = load i64, ptr %5, align 8, !tbaa !95
  %306 = load i64, ptr %8, align 8, !tbaa !95
  %307 = add i64 %306, 1
  %308 = icmp uge i64 %305, %307
  br i1 %308, label %309, label %313

309:                                              ; preds = %303
  %310 = load i64, ptr %8, align 8, !tbaa !95
  %311 = add i64 %310, 1
  %312 = sub i64 %311, 1
  store i64 %312, ptr %9, align 8, !tbaa !95
  br label %315

313:                                              ; preds = %303
  %314 = load i64, ptr %5, align 8, !tbaa !95
  store i64 %314, ptr %9, align 8, !tbaa !95
  br label %315

315:                                              ; preds = %313, %309
  %316 = load ptr, ptr %7, align 8, !tbaa !15
  %317 = load ptr, ptr %4, align 8, !tbaa !114
  %318 = load ptr, ptr %317, align 8, !tbaa !15
  %319 = load i64, ptr %9, align 8, !tbaa !95
  call void @llvm.memcpy.p0.p0.i64(ptr align 1 %316, ptr align 1 %318, i64 %319, i1 false)
  %320 = load ptr, ptr %7, align 8, !tbaa !15
  %321 = load i64, ptr %9, align 8, !tbaa !95
  %322 = getelementptr inbounds nuw i8, ptr %320, i64 %321
  store i8 0, ptr %322, align 1, !tbaa !28
  call void @llvm.lifetime.end.p0(i64 8, ptr %9) #15
  %323 = load ptr, ptr %7, align 8, !tbaa !15
  %324 = load i64, ptr %8, align 8, !tbaa !95
  %325 = add i64 %324, 1
  %326 = call i64 @php_strlcat(ptr noundef %323, ptr noundef @.str.9, i64 noundef %325)
  %327 = load ptr, ptr %7, align 8, !tbaa !15
  %328 = load ptr, ptr %6, align 8, !tbaa !15
  %329 = load i64, ptr %8, align 8, !tbaa !95
  %330 = add i64 %329, 1
  %331 = call i64 @php_strlcat(ptr noundef %327, ptr noundef %328, i64 noundef %330)
  %332 = load ptr, ptr %4, align 8, !tbaa !114
  %333 = load ptr, ptr %332, align 8, !tbaa !15
  call void @_efree(ptr noundef %333)
  %334 = load ptr, ptr %7, align 8, !tbaa !15
  %335 = load ptr, ptr %4, align 8, !tbaa !114
  store ptr %334, ptr %335, align 8, !tbaa !15
  %336 = load i64, ptr %8, align 8, !tbaa !95
  store i64 %336, ptr %3, align 8
  store i32 1, ptr %10, align 4
  br label %339

337:                                              ; preds = %31, %26, %21
  br label %338

338:                                              ; preds = %337, %16
  store i64 0, ptr %3, align 8
  store i32 1, ptr %10, align 4
  br label %339

339:                                              ; preds = %338, %315
  call void @llvm.lifetime.end.p0(i64 8, ptr %8) #15
  call void @llvm.lifetime.end.p0(i64 8, ptr %7) #15
  call void @llvm.lifetime.end.p0(i64 8, ptr %6) #15
  %340 = load i64, ptr %3, align 8
  ret i64 %340
}