; Function Attrs: nounwind uwtable
define dso_local i64 @sapi_apply_default_charset(ptr noundef captures(none) %0, i64 noundef %1) local_unnamed_addr #0 {
  %3 = load ptr, ptr getelementptr inbounds nuw (i8, ptr @sapi_globals, i64 408), align 8, !tbaa !98
  %.not = icmp eq ptr %3, null
  %4 = select i1 %.not, ptr @.str.6, ptr %3
  %5 = load ptr, ptr %0, align 8, !tbaa !13
  %.not63 = icmp eq ptr %5, null
  br i1 %.not63, label %25, label %6

6:                                                ; preds = %2
  %7 = load i8, ptr %4, align 1, !tbaa !20
  %.not64 = icmp eq i8 %7, 0
  br i1 %.not64, label %25, label %8

8:                                                ; preds = %6
  %9 = tail call i32 @strncmp(ptr noundef nonnull dereferenceable(1) %5, ptr noundef nonnull dereferenceable(6) @.str.7, i64 noundef 5) #20
  %10 = icmp eq i32 %9, 0
  br i1 %10, label %11, label %25

11:                                               ; preds = %8
  %12 = tail call ptr @strstr(ptr noundef nonnull dereferenceable(1) %5, ptr noundef nonnull dereferenceable(1) @.str.8) #20
  %13 = icmp eq ptr %12, null
  br i1 %13, label %14, label %25

14:                                               ; preds = %11
  %15 = add i64 %1, 9
  %16 = tail call i64 @strlen(ptr noundef nonnull dereferenceable(1) %4) #20
  %17 = add i64 %15, %16
  %18 = add i64 %17, 1
  %19 = tail call noalias ptr @_emalloc(i64 noundef %18) #22
  %.not65 = icmp ult i64 %1, %18
  %. = select i1 %.not65, i64 %1, i64 %17
  %20 = load ptr, ptr %0, align 8, !tbaa !13
  tail call void @llvm.memcpy.p0.p0.i64(ptr align 1 %19, ptr align 1 %20, i64 %., i1 false)
  %21 = getelementptr inbounds nuw i8, ptr %19, i64 %.
  store i8 0, ptr %21, align 1, !tbaa !20
  %22 = tail call i64 @php_strlcat(ptr noundef %19, ptr noundef nonnull @.str.9, i64 noundef %18) #19
  %23 = tail call i64 @php_strlcat(ptr noundef %19, ptr noundef nonnull %4, i64 noundef %18) #19
  %24 = load ptr, ptr %0, align 8, !tbaa !13
  tail call void @_efree(ptr noundef %24) #19
  store ptr %19, ptr %0, align 8, !tbaa !13
  br label %25

25:                                               ; preds = %2, %11, %8, %6, %14
  %.059 = phi i64 [ %17, %14 ], [ 0, %6 ], [ 0, %8 ], [ 0, %11 ], [ 0, %2 ]
  ret i64 %.059
}